target datalayout = "e-m:e-p270:32:32-p271:32:32-p272:64:64-i64:64-i128:128-f80:128-n8:16:32:64-S128"
target triple = "x86_64-pc-linux-gnu"

%struct.DdManager = type { %struct.DdNode, ptr, ptr, ptr, ptr, ptr, ptr, ptr, i32, i32, double, double, double, i32, i32, i32, i32, i32, i32, ptr, ptr, %struct.DdSubtable, i32, i32, i32, i32, i32, i32, i32, double, i32, i32, i32, ptr, i64, double, i32, ptr, ptr, ptr, ptr, ptr, ptr, ptr, i32, ptr, ptr, ptr, ptr, ptr, ptr, i32, i32, i32, double, i32, i32, i32, i32, double, double, i32, i32, i32, i32, i32, i32, i32, i32, i32, ptr, ptr, i32, i32, i32, i32, i32, i32, ptr, ptr, ptr, ptr, ptr, ptr, ptr, ptr, i32, i64, i64, i64, i32, i64, i64, double, double, double, double, double, double, i32, ptr, ptr, i64 }
%struct.DdNode = type { i32, i32, ptr, %union.anon, i64 }
%union.anon = type { %struct.DdChildren }
%struct.DdChildren = type { ptr, ptr }
%struct.DdSubtable = type { ptr, i32, i32, i32, i32, i32, i32, i32, i32, i32, i32, i32 }
%struct.DdCache = type { ptr, ptr, i64, ptr, i32 }

; Function Attrs: nounwind uwtable
define void @cuddCacheInsert1(ptr noundef %0, ptr noundef %1, ptr noundef %2, ptr noundef %3) #0 {
  %5 = alloca ptr, align 8
  %6 = alloca ptr, align 8
  %7 = alloca ptr, align 8
  %8 = alloca ptr, align 8
  %9 = alloca i32, align 4
  %10 = alloca i32, align 4
  %11 = alloca ptr, align 8
  store ptr %0, ptr %5, align 8, !tbaa !3
  store ptr %1, ptr %6, align 8, !tbaa !58
  store ptr %2, ptr %7, align 8, !tbaa !52
  store ptr %3, ptr %8, align 8, !tbaa !52
  call void @llvm.lifetime.start.p0(i64 4, ptr %9) #6
  call void @llvm.lifetime.start.p0(i64 4, ptr %10) #6
  call void @llvm.lifetime.start.p0(i64 8, ptr %11) #6
  %12 = load ptr, ptr %7, align 8, !tbaa !52
  %13 = ptrtoint ptr %12 to i64
  %14 = and i64 %13, -2
  %15 = inttoptr i64 %14 to ptr
  %16 = getelementptr inbounds nuw %struct.DdNode, ptr %15, i32 0, i32 4
  %17 = load i64, ptr %16, align 8, !tbaa !53
  %18 = shl i64 %17, 1
  %19 = load ptr, ptr %7, align 8, !tbaa !52
  %20 = ptrtoint ptr %19 to i64
  %21 = and i64 %20, 1
  %22 = trunc i64 %21 to i32
  %23 = sext i32 %22 to i64
  %24 = or i64 %18, %23
  %25 = trunc i64 %24 to i32
  %26 = load ptr, ptr %6, align 8, !tbaa !58
  %27 = ptrtoint ptr %26 to i64
  %28 = trunc i64 %27 to i32
  %29 = add i32 %25, %28
  %30 = mul i32 %29, 12582917
  %31 = load ptr, ptr %7, align 8, !tbaa !52
  %32 = ptrtoint ptr %31 to i64
  %33 = and i64 %32, -2
  %34 = inttoptr i64 %33 to ptr
  %35 = getelementptr inbounds nuw %struct.DdNode, ptr %34, i32 0, i32 4
  %36 = load i64, ptr %35, align 8, !tbaa !53
  %37 = shl i64 %36, 1
  %38 = load ptr, ptr %7, align 8, !tbaa !52
  %39 = ptrtoint ptr %38 to i64
  %40 = and i64 %39, 1
  %41 = trunc i64 %40 to i32
  %42 = sext i32 %41 to i64
  %43 = or i64 %37, %42
  %44 = trunc i64 %43 to i32
  %45 = add i32 %30, %44
  %46 = mul i32 %45, 4256249
  store i32 %46, ptr %10, align 4, !tbaa !8
  %47 = load i32, ptr %10, align 4, !tbaa !8
  %48 = load ptr, ptr %5, align 8, !tbaa !3
  %49 = getelementptr inbounds nuw %struct.DdManager, ptr %48, i32 0, i32 9
  %50 = load i32, ptr %49, align 4, !tbaa !34
  %51 = lshr i32 %47, %50
  store i32 %51, ptr %9, align 4, !tbaa !8
  %52 = load ptr, ptr %5, align 8, !tbaa !3
  %53 = getelementptr inbounds nuw %struct.DdManager, ptr %52, i32 0, i32 7
  %54 = load ptr, ptr %53, align 8, !tbaa !31
  %55 = load i32, ptr %9, align 4, !tbaa !8
  %56 = sext i32 %55 to i64
  %57 = getelementptr inbounds %struct.DdCache, ptr %54, i64 %56
  store ptr %57, ptr %11, align 8, !tbaa !54
  %58 = load ptr, ptr %11, align 8, !tbaa !54
  %59 = getelementptr inbounds nuw %struct.DdCache, ptr %58, i32 0, i32 3
  %60 = load ptr, ptr %59, align 8, !tbaa !48
  %61 = icmp ne ptr %60, null
  br i1 %61, label %62, label %67

62:                                               ; preds = %4
  %63 = load ptr, ptr %5, align 8, !tbaa !3
  %64 = getelementptr inbounds nuw %struct.DdManager, ptr %63, i32 0, i32 95
  %65 = load double, ptr %64, align 8, !tbaa !42
  %66 = fadd double %65, 1.000000e+00
  store double %66, ptr %64, align 8, !tbaa !42
  br label %67

67:                                               ; preds = %62, %4
  %68 = load ptr, ptr %5, align 8, !tbaa !3
  %69 = getelementptr inbounds nuw %struct.DdManager, ptr %68, i32 0, i32 96
  %70 = load double, ptr %69, align 8, !tbaa !43
  %71 = fadd double %70, 1.000000e+00
  store double %71, ptr %69, align 8, !tbaa !43
  %72 = load ptr, ptr %7, align 8, !tbaa !52
  %73 = load ptr, ptr %11, align 8, !tbaa !54
  %74 = getelementptr inbounds nuw %struct.DdCache, ptr %73, i32 0, i32 0
  store ptr %72, ptr %74, align 8, !tbaa !55
  %75 = load ptr, ptr %7, align 8, !tbaa !52
  %76 = load ptr, ptr %11, align 8, !tbaa !54
  %77 = getelementptr inbounds nuw %struct.DdCache, ptr %76, i32 0, i32 1
  store ptr %75, ptr %77, align 8, !tbaa !56
  %78 = load ptr, ptr %6, align 8, !tbaa !58
  %79 = ptrtoint ptr %78 to i64
  %80 = load ptr, ptr %11, align 8, !tbaa !54
  %81 = getelementptr inbounds nuw %struct.DdCache, ptr %80, i32 0, i32 2
  store i64 %79, ptr %81, align 8, !tbaa !46
  %82 = load ptr, ptr %8, align 8, !tbaa !52
  %83 = load ptr, ptr %11, align 8, !tbaa !54
  %84 = getelementptr inbounds nuw %struct.DdCache, ptr %83, i32 0, i32 3
  store ptr %82, ptr %84, align 8, !tbaa !48
  %85 = load i32, ptr %10, align 4, !tbaa !8
  %86 = load ptr, ptr %11, align 8, !tbaa !54
  %87 = getelementptr inbounds nuw %struct.DdCache, ptr %86, i32 0, i32 4
  store i32 %85, ptr %87, align 8, !tbaa !57
  call void @llvm.lifetime.end.p0(i64 8, ptr %11) #6
  call void @llvm.lifetime.end.p0(i64 4, ptr %10) #6
  call void @llvm.lifetime.end.p0(i64 4, ptr %9) #6
  ret void
}