; Function Attrs: mustprogress nofree norecurse nosync nounwind willreturn memory(readwrite, inaccessiblemem: none) uwtable
define void @cuddCacheInsert1(ptr noundef captures(none) %0, ptr noundef %1, ptr noundef %2, ptr noundef %3) local_unnamed_addr #5 {
  %5 = ptrtoint ptr %2 to i64
  %6 = and i64 %5, -2
  %7 = inttoptr i64 %6 to ptr
  %8 = getelementptr inbounds nuw i8, ptr %7, i64 32
  %9 = load i64, ptr %8, align 8, !tbaa !40
  %10 = shl i64 %9, 1
  %11 = and i64 %5, 1
  %12 = or disjoint i64 %10, %11
  %13 = trunc i64 %12 to i32
  %14 = ptrtoint ptr %1 to i64
  %15 = trunc i64 %14 to i32
  %16 = add i32 %13, %15
  %17 = mul i32 %16, 12582917
  %18 = add i32 %17, %13
  %19 = mul i32 %18, 4256249
  %20 = getelementptr inbounds nuw i8, ptr %0, i64 100
  %21 = load i32, ptr %20, align 4, !tbaa !31
  %22 = lshr i32 %19, %21
  %23 = getelementptr inbounds nuw i8, ptr %0, i64 88
  %24 = load ptr, ptr %23, align 8, !tbaa !28
  %25 = sext i32 %22 to i64
  %26 = getelementptr inbounds %struct.DdCache, ptr %24, i64 %25
  %27 = getelementptr inbounds nuw i8, ptr %26, i64 24
  %28 = load ptr, ptr %27, align 8, !tbaa !41
  %.not = icmp eq ptr %28, null
  br i1 %.not, label %33, label %29

29:                                               ; preds = %4
  %30 = getelementptr inbounds nuw i8, ptr %0, i64 696
  %31 = load double, ptr %30, align 8, !tbaa !43
  %32 = fadd double %31, 1.000000e+00
  store double %32, ptr %30, align 8, !tbaa !43
  br label %33

33:                                               ; preds = %29, %4
  %34 = getelementptr inbounds nuw i8, ptr %0, i64 704
  %35 = load double, ptr %34, align 8, !tbaa !44
  %36 = fadd double %35, 1.000000e+00
  store double %36, ptr %34, align 8, !tbaa !44
  store ptr %2, ptr %26, align 8, !tbaa !45
  %37 = getelementptr inbounds nuw i8, ptr %26, i64 8
  store ptr %2, ptr %37, align 8, !tbaa !46
  %38 = getelementptr inbounds nuw i8, ptr %26, i64 16
  store i64 %14, ptr %38, align 8, !tbaa !47
  store ptr %3, ptr %27, align 8, !tbaa !41
  %39 = getelementptr inbounds nuw i8, ptr %26, i64 32
  store i32 %19, ptr %39, align 8, !tbaa !48
  ret void
}